target datalayout = "e-m:e-p270:32:32-p271:32:32-p272:64:64-i64:64-i128:128-f80:128-n8:16:32:64-S128"
target triple = "x86_64-pc-linux-gnu"

%struct.strbuf = type { i64, i64, ptr }
%struct.ref_formatting_stack = type { ptr, %struct.strbuf, ptr, ptr, ptr }
%struct.align = type { i32, i32 }

@__const.end_align_handler.s = private unnamed_addr constant %struct.strbuf { i64 0, i64 0, ptr @strbuf_slopbuf }, align 8

; Function Attrs: inlinehint nounwind uwtable
define internal void @strbuf_swap(ptr noundef %0, ptr noundef %1) #1 {
  %3 = alloca ptr, align 8
  %4 = alloca ptr, align 8
  %5 = alloca ptr, align 8
  %6 = alloca ptr, align 8
  %7 = alloca [24 x i8], align 16
  store ptr %0, ptr %3, align 8, !tbaa !36
  store ptr %1, ptr %4, align 8, !tbaa !36
  br label %8

8:                                                ; preds = %2
  call void @llvm.lifetime.start.p0(i64 8, ptr %5) #11
  %9 = load ptr, ptr %3, align 8, !tbaa !36
  store ptr %9, ptr %5, align 8, !tbaa !118
  call void @llvm.lifetime.start.p0(i64 8, ptr %6) #11
  %10 = load ptr, ptr %4, align 8, !tbaa !36
  store ptr %10, ptr %6, align 8, !tbaa !118
  call void @llvm.lifetime.start.p0(i64 24, ptr %7) #11
  %11 = getelementptr inbounds [24 x i8], ptr %7, i64 0, i64 0
  %12 = load ptr, ptr %5, align 8, !tbaa !118
  call void @llvm.memcpy.p0.p0.i64(ptr align 16 %11, ptr align 1 %12, i64 24, i1 false)
  %13 = load ptr, ptr %5, align 8, !tbaa !118
  %14 = load ptr, ptr %6, align 8, !tbaa !118
  call void @llvm.memcpy.p0.p0.i64(ptr align 1 %13, ptr align 1 %14, i64 24, i1 false)
  %15 = load ptr, ptr %6, align 8, !tbaa !118
  %16 = getelementptr inbounds [24 x i8], ptr %7, i64 0, i64 0
  call void @llvm.memcpy.p0.p0.i64(ptr align 1 %15, ptr align 16 %16, i64 24, i1 false)
  call void @llvm.lifetime.end.p0(i64 24, ptr %7) #11
  call void @llvm.lifetime.end.p0(i64 8, ptr %6) #11
  call void @llvm.lifetime.end.p0(i64 8, ptr %5) #11
  br label %17

17:                                               ; preds = %8
  ret void
}

; Function Attrs: nounwind uwtable
define internal void @end_align_handler(ptr noundef %0) #0 {
  %2 = alloca ptr, align 8
  %3 = alloca ptr, align 8
  %4 = alloca ptr, align 8
  %5 = alloca %struct.strbuf, align 8
  store ptr %0, ptr %2, align 8, !tbaa !166
  call void @llvm.lifetime.start.p0(i64 8, ptr %3) #11
  %6 = load ptr, ptr %2, align 8, !tbaa !166
  %7 = load ptr, ptr %6, align 8, !tbaa !168
  store ptr %7, ptr %3, align 8, !tbaa !168
  call void @llvm.lifetime.start.p0(i64 8, ptr %4) #11
  %8 = load ptr, ptr %3, align 8, !tbaa !168
  %9 = getelementptr inbounds nuw %struct.ref_formatting_stack, ptr %8, i32 0, i32 4
  %10 = load ptr, ptr %9, align 8, !tbaa !175
  store ptr %10, ptr %4, align 8, !tbaa !207
  call void @llvm.lifetime.start.p0(i64 24, ptr %5) #11
  call void @llvm.memcpy.p0.p0.i64(ptr align 8 %5, ptr align 8 @__const.end_align_handler.s, i64 24, i1 false)
  %11 = load ptr, ptr %4, align 8, !tbaa !207
  %12 = getelementptr inbounds nuw %struct.align, ptr %11, i32 0, i32 0
  %13 = load i32, ptr %12, align 4, !tbaa !209
  %14 = load ptr, ptr %4, align 8, !tbaa !207
  %15 = getelementptr inbounds nuw %struct.align, ptr %14, i32 0, i32 1
  %16 = load i32, ptr %15, align 4, !tbaa !212
  %17 = load ptr, ptr %3, align 8, !tbaa !168
  %18 = getelementptr inbounds nuw %struct.ref_formatting_stack, ptr %17, i32 0, i32 1
  %19 = getelementptr inbounds nuw %struct.strbuf, ptr %18, i32 0, i32 2
  %20 = load ptr, ptr %19, align 8, !tbaa !270
  call void @strbuf_utf8_align(ptr noundef %5, i32 noundef %13, i32 noundef %16, ptr noundef %20)
  %21 = load ptr, ptr %3, align 8, !tbaa !168
  %22 = getelementptr inbounds nuw %struct.ref_formatting_stack, ptr %21, i32 0, i32 1
  call void @strbuf_swap(ptr noundef %22, ptr noundef %5)
  call void @strbuf_release(ptr noundef %5)
  call void @llvm.lifetime.end.p0(i64 24, ptr %5) #11
  call void @llvm.lifetime.end.p0(i64 8, ptr %4) #11
  call void @llvm.lifetime.end.p0(i64 8, ptr %3) #11
  ret void
}