; Function Attrs: nounwind uwtable
define internal void @end_align_handler(ptr noundef readonly captures(none) %0) #0 {
  %2 = alloca [24 x i8], align 16
  %3 = alloca %struct.strbuf, align 8
  %4 = load ptr, ptr %0, align 8, !tbaa !155
  %5 = getelementptr inbounds nuw i8, ptr %4, i64 48
  %6 = load ptr, ptr %5, align 8, !tbaa !160
  call void @llvm.lifetime.start.p0(i64 24, ptr nonnull %3) #23
  call void @llvm.memcpy.p0.p0.i64(ptr noundef nonnull align 8 dereferenceable(24) %3, ptr noundef nonnull align 8 dereferenceable(24) @__const.parse_sorting_atom.err, i64 24, i1 false)
  %7 = load i32, ptr %6, align 4, !tbaa !209
  %8 = getelementptr inbounds nuw i8, ptr %6, i64 4
  %9 = load i32, ptr %8, align 4, !tbaa !212
  %10 = getelementptr inbounds nuw i8, ptr %4, i64 8
  %11 = getelementptr inbounds nuw i8, ptr %4, i64 24
  %12 = load ptr, ptr %11, align 8, !tbaa !223
  call void @strbuf_utf8_align(ptr noundef nonnull %3, i32 noundef %7, i32 noundef %9, ptr noundef %12) #23
  call void @llvm.lifetime.start.p0(i64 24, ptr nonnull %2)
  call void @llvm.memcpy.p0.p0.i64(ptr noundef nonnull align 16 dereferenceable(24) %2, ptr noundef nonnull align 1 dereferenceable(24) %10, i64 24, i1 false)
  call void @llvm.memcpy.p0.p0.i64(ptr noundef nonnull align 1 dereferenceable(24) %10, ptr noundef nonnull align 8 dereferenceable(24) %3, i64 24, i1 false)
  call void @llvm.memcpy.p0.p0.i64(ptr noundef nonnull align 8 dereferenceable(24) %3, ptr noundef nonnull align 16 dereferenceable(24) %2, i64 24, i1 false)
  call void @llvm.lifetime.end.p0(i64 24, ptr nonnull %2)
  call void @strbuf_release(ptr noundef nonnull %3) #23
  call void @llvm.lifetime.end.p0(i64 24, ptr nonnull %3) #23
  ret void
}